target datalayout = "e-m:e-p270:32:32-p271:32:32-p272:64:64-i64:64-i128:128-f80:128-n8:16:32:64-S128"
target triple = "x86_64-pc-linux-gnu"

%"class.absl::lts_20240722::log_internal::Voidify" = type { i8 }
%"class.absl::lts_20240722::log_internal::LogMessage" = type { %"class.absl::lts_20240722::base_internal::ErrnoSaver", %"class.std::unique_ptr" }
%"class.absl::lts_20240722::base_internal::ErrnoSaver" = type { i32 }
%"class.std::unique_ptr" = type { %"struct.std::__uniq_ptr_data" }
%"struct.std::__uniq_ptr_data" = type { %"class.std::__uniq_ptr_impl" }
%"class.std::__uniq_ptr_impl" = type { %"class.std::tuple" }
%"class.std::tuple" = type { %"struct.std::_Tuple_impl" }
%"struct.std::_Tuple_impl" = type { %"struct.std::_Head_base.1" }
%"struct.std::_Head_base.1" = type { ptr }
%"class.std::basic_string_view" = type { i64, ptr }
%struct.grpc_slice_buffer = type { ptr, ptr, i64, i64, i64, [6 x %struct.grpc_slice] }
%struct.grpc_slice = type { ptr, %"union.grpc_slice::grpc_slice_data" }
%"union.grpc_slice::grpc_slice_data" = type { %"struct.grpc_slice::grpc_slice_data::grpc_slice_refcounted", [8 x i8] }
%"struct.grpc_slice::grpc_slice_data::grpc_slice_refcounted" = type { i64, ptr }
%struct.tsi_fake_zero_copy_grpc_protector = type { %struct.tsi_zero_copy_grpc_protector, %struct.grpc_slice_buffer, %struct.grpc_slice_buffer, i64, i64 }
%struct.tsi_zero_copy_grpc_protector = type { ptr }

@.str = private unnamed_addr constant [127 x i8] c"generated/home/dtcxzyw/WorkSpace/Projects/compilers/llvm-opt-benchmark/bench/grpc/grpc/src/core/tsi/fake_transport_security.cc\00", align 1
@.str.28 = private unnamed_addr constant [20 x i8] c"Invalid frame size.\00", align 1

; Function Attrs: noinline noreturn nounwind uwtable
define linkonce_odr hidden void @__clang_call_terminate(ptr noundef %0) #13 comdat {
  %2 = call ptr @__cxa_begin_catch(ptr %0) #3
  call void @_ZSt9terminatev() #21
  unreachable
}

; Function Attrs: mustprogress nounwind uwtable
define linkonce_odr noundef i64 @_ZNSt11char_traitsIcE6lengthEPKc(ptr noundef %0) #7 comdat align 2 {
  %2 = alloca ptr, align 8
  store ptr %0, ptr %2, align 8, !tbaa !12
  %3 = load ptr, ptr %2, align 8, !tbaa !12
  %4 = call i64 @strlen(ptr noundef %3) #3
  ret i64 %4
}

; Function Attrs: mustprogress nounwind uwtable
define linkonce_odr void @_ZNSt17basic_string_viewIcSt11char_traitsIcEEC2EPKc(ptr noundef nonnull align 8 dereferenceable(16) %0, ptr noundef nonnull %1) unnamed_addr #7 comdat align 2 personality ptr @__gxx_personality_v0 {
  %3 = alloca ptr, align 8
  %4 = alloca ptr, align 8
  store ptr %0, ptr %3, align 8, !tbaa !64
  store ptr %1, ptr %4, align 8, !tbaa !12
  %5 = load ptr, ptr %3, align 8
  %6 = getelementptr inbounds nuw %"class.std::basic_string_view", ptr %5, i32 0, i32 0
  %7 = load ptr, ptr %4, align 8, !tbaa !12
  %8 = invoke noundef i64 @_ZNSt11char_traitsIcE6lengthEPKc(ptr noundef %7)
          to label %9 unwind label %12

9:                                                ; preds = %2
  store i64 %8, ptr %6, align 8, !tbaa !66
  %10 = getelementptr inbounds nuw %"class.std::basic_string_view", ptr %5, i32 0, i32 1
  %11 = load ptr, ptr %4, align 8, !tbaa !12
  store ptr %11, ptr %10, align 8, !tbaa !68
  ret void

12:                                               ; preds = %2
  %13 = landingpad { ptr, i32 }
          catch ptr null
  %14 = extractvalue { ptr, i32 } %13, 0
  call void @__clang_call_terminate(ptr %14) #21
  unreachable
}

; Function Attrs: mustprogress nounwind uwtable
define linkonce_odr void @_ZNKO4absl12lts_2024072212log_internal7VoidifyaaINS1_10LogMessageEEEvRKT_(ptr noundef nonnull align 1 dereferenceable(1) %0, ptr noundef nonnull align 8 dereferenceable(16) %1) #7 comdat align 2 {
  %3 = alloca ptr, align 8
  %4 = alloca ptr, align 8
  store ptr %0, ptr %3, align 8, !tbaa !60
  store ptr %1, ptr %4, align 8, !tbaa !62
  ret void
}

; Function Attrs: mustprogress uwtable
define linkonce_odr noundef nonnull align 8 dereferenceable(16) ptr @_ZN4absl12lts_2024072212log_internal10LogMessagelsILi20EEERS2_RAT__Kc(ptr noundef nonnull align 8 dereferenceable(16) %0, ptr noundef nonnull align 1 dereferenceable(20) %1) #4 comdat align 2 {
  %3 = alloca ptr, align 8
  %4 = alloca ptr, align 8
  %5 = alloca %"class.std::basic_string_view", align 8
  store ptr %0, ptr %3, align 8, !tbaa !62
  store ptr %1, ptr %4, align 8, !tbaa !12
  %6 = load ptr, ptr %3, align 8
  %7 = load ptr, ptr %4, align 8, !tbaa !12
  %8 = getelementptr inbounds [20 x i8], ptr %7, i64 0, i64 0
  call void @_ZNSt17basic_string_viewIcSt11char_traitsIcEEC2EPKc(ptr noundef nonnull align 8 dereferenceable(16) %5, ptr noundef %8) #3
  %9 = getelementptr inbounds nuw { i64, ptr }, ptr %5, i32 0, i32 0
  %10 = load i64, ptr %9, align 8
  %11 = getelementptr inbounds nuw { i64, ptr }, ptr %5, i32 0, i32 1
  %12 = load ptr, ptr %11, align 8
  call void @_ZN4absl12lts_2024072212log_internal10LogMessage19CopyToEncodedBufferILNS2_10StringTypeE0EEEvSt17basic_string_viewIcSt11char_traitsIcEE(ptr noundef nonnull align 8 dereferenceable(16) %6, i64 %10, ptr %12)
  ret ptr %6
}

; Function Attrs: mustprogress nounwind uwtable
define linkonce_odr noundef nonnull align 8 dereferenceable(16) ptr @_ZN4absl12lts_2024072212log_internal10LogMessage14InternalStreamEv(ptr noundef nonnull align 8 dereferenceable(16) %0) #7 comdat align 2 {
  %2 = alloca ptr, align 8
  store ptr %0, ptr %2, align 8, !tbaa !62
  %3 = load ptr, ptr %2, align 8
  ret ptr %3
}

; Function Attrs: mustprogress uwtable
define internal noundef i32 @_ZL39fake_zero_copy_grpc_protector_unprotectP28tsi_zero_copy_grpc_protectorP17grpc_slice_bufferS2_Pi(ptr noundef %0, ptr noundef %1, ptr noundef %2, ptr noundef %3) #4 personality ptr @__gxx_personality_v0 {
  %5 = alloca i32, align 4
  %6 = alloca ptr, align 8
  %7 = alloca ptr, align 8
  %8 = alloca ptr, align 8
  %9 = alloca ptr, align 8
  %10 = alloca ptr, align 8
  %11 = alloca %"class.absl::lts_20240722::log_internal::Voidify", align 1
  %12 = alloca %"class.absl::lts_20240722::log_internal::LogMessage", align 8
  %13 = alloca ptr, align 8
  %14 = alloca i32, align 4
  %15 = alloca i32, align 4
  store ptr %0, ptr %6, align 8, !tbaa !172
  store ptr %1, ptr %7, align 8, !tbaa !3
  store ptr %2, ptr %8, align 8, !tbaa !3
  store ptr %3, ptr %9, align 8, !tbaa !69
  %16 = load ptr, ptr %6, align 8, !tbaa !172
  %17 = icmp eq ptr %16, null
  br i1 %17, label %24, label %18

18:                                               ; preds = %4
  %19 = load ptr, ptr %8, align 8, !tbaa !3
  %20 = icmp eq ptr %19, null
  br i1 %20, label %24, label %21

21:                                               ; preds = %18
  %22 = load ptr, ptr %7, align 8, !tbaa !3
  %23 = icmp eq ptr %22, null
  br i1 %23, label %24, label %25

24:                                               ; preds = %21, %18, %4
  store i32 2, ptr %5, align 4
  br label %111

25:                                               ; preds = %21
  call void @llvm.lifetime.start.p0(i64 8, ptr %10) #3
  %26 = load ptr, ptr %6, align 8, !tbaa !172
  store ptr %26, ptr %10, align 8, !tbaa !52
  %27 = load ptr, ptr %7, align 8, !tbaa !3
  %28 = load ptr, ptr %10, align 8, !tbaa !52
  %29 = getelementptr inbounds nuw %struct.tsi_fake_zero_copy_grpc_protector, ptr %28, i32 0, i32 2
  call void @grpc_slice_buffer_move_into(ptr noundef %27, ptr noundef %29)
  br label %30

30:                                               ; preds = %71, %25
  %31 = load ptr, ptr %10, align 8, !tbaa !52
  %32 = getelementptr inbounds nuw %struct.tsi_fake_zero_copy_grpc_protector, ptr %31, i32 0, i32 2
  %33 = getelementptr inbounds nuw %struct.grpc_slice_buffer, ptr %32, i32 0, i32 4
  %34 = load i64, ptr %33, align 8, !tbaa !181
  %35 = icmp uge i64 %34, 4
  br i1 %35, label %36, label %87

36:                                               ; preds = %30
  %37 = load ptr, ptr %10, align 8, !tbaa !52
  %38 = getelementptr inbounds nuw %struct.tsi_fake_zero_copy_grpc_protector, ptr %37, i32 0, i32 4
  %39 = load i64, ptr %38, align 8, !tbaa !58
  %40 = icmp eq i64 %39, 0
  br i1 %40, label %41, label %61

41:                                               ; preds = %36
  %42 = load ptr, ptr %10, align 8, !tbaa !52
  %43 = getelementptr inbounds nuw %struct.tsi_fake_zero_copy_grpc_protector, ptr %42, i32 0, i32 2
  %44 = call noundef i32 @_ZL15read_frame_sizePK17grpc_slice_buffer(ptr noundef %43)
  %45 = zext i32 %44 to i64
  %46 = load ptr, ptr %10, align 8, !tbaa !52
  %47 = getelementptr inbounds nuw %struct.tsi_fake_zero_copy_grpc_protector, ptr %46, i32 0, i32 4
  store i64 %45, ptr %47, align 8, !tbaa !58
  %48 = load ptr, ptr %10, align 8, !tbaa !52
  %49 = getelementptr inbounds nuw %struct.tsi_fake_zero_copy_grpc_protector, ptr %48, i32 0, i32 4
  %50 = load i64, ptr %49, align 8, !tbaa !58
  %51 = icmp ule i64 %50, 4
  br i1 %51, label %52, label %60

52:                                               ; preds = %41
  call void @llvm.lifetime.start.p0(i64 1, ptr %11) #3
  call void @llvm.lifetime.start.p0(i64 16, ptr %12) #3
  call void @_ZN4absl12lts_2024072212log_internal10LogMessageC1EPKciNS2_8ErrorTagE(ptr noundef nonnull align 8 dereferenceable(16) %12, ptr noundef @.str, i32 noundef 477) #20
  %53 = call noundef nonnull align 8 dereferenceable(16) ptr @_ZN4absl12lts_2024072212log_internal10LogMessage14InternalStreamEv(ptr noundef nonnull align 8 dereferenceable(16) %12)
  %54 = invoke noundef nonnull align 8 dereferenceable(16) ptr @_ZN4absl12lts_2024072212log_internal10LogMessagelsILi20EEERS2_RAT__Kc(ptr noundef nonnull align 8 dereferenceable(16) %53, ptr noundef nonnull align 1 dereferenceable(20) @.str.28)
          to label %55 unwind label %56

55:                                               ; preds = %52
  call void @_ZNKO4absl12lts_2024072212log_internal7VoidifyaaINS1_10LogMessageEEEvRKT_(ptr noundef nonnull align 1 dereferenceable(1) %11, ptr noundef nonnull align 8 dereferenceable(16) %54)
  call void @_ZN4absl12lts_2024072212log_internal10LogMessageD1Ev(ptr noundef nonnull align 8 dereferenceable(16) %12) #23
  call void @llvm.lifetime.end.p0(i64 16, ptr %12) #3
  call void @llvm.lifetime.end.p0(i64 1, ptr %11) #3
  store i32 8, ptr %5, align 4
  store i32 1, ptr %15, align 4
  br label %110

56:                                               ; preds = %52
  %57 = landingpad { ptr, i32 }
          cleanup
  %58 = extractvalue { ptr, i32 } %57, 0
  store ptr %58, ptr %13, align 8
  %59 = extractvalue { ptr, i32 } %57, 1
  store i32 %59, ptr %14, align 4
  call void @_ZN4absl12lts_2024072212log_internal10LogMessageD1Ev(ptr noundef nonnull align 8 dereferenceable(16) %12) #23
  call void @llvm.lifetime.end.p0(i64 16, ptr %12) #3
  call void @llvm.lifetime.end.p0(i64 1, ptr %11) #3
  call void @llvm.lifetime.end.p0(i64 8, ptr %10) #3
  br label %113

60:                                               ; preds = %41
  br label %61

61:                                               ; preds = %60, %36
  %62 = load ptr, ptr %10, align 8, !tbaa !52
  %63 = getelementptr inbounds nuw %struct.tsi_fake_zero_copy_grpc_protector, ptr %62, i32 0, i32 2
  %64 = getelementptr inbounds nuw %struct.grpc_slice_buffer, ptr %63, i32 0, i32 4
  %65 = load i64, ptr %64, align 8, !tbaa !181
  %66 = load ptr, ptr %10, align 8, !tbaa !52
  %67 = getelementptr inbounds nuw %struct.tsi_fake_zero_copy_grpc_protector, ptr %66, i32 0, i32 4
  %68 = load i64, ptr %67, align 8, !tbaa !58
  %69 = icmp ult i64 %65, %68
  br i1 %69, label %70, label %71

70:                                               ; preds = %61
  br label %87

71:                                               ; preds = %61
  %72 = load ptr, ptr %10, align 8, !tbaa !52
  %73 = getelementptr inbounds nuw %struct.tsi_fake_zero_copy_grpc_protector, ptr %72, i32 0, i32 2
  %74 = load ptr, ptr %10, align 8, !tbaa !52
  %75 = getelementptr inbounds nuw %struct.tsi_fake_zero_copy_grpc_protector, ptr %74, i32 0, i32 1
  call void @grpc_slice_buffer_move_first(ptr noundef %73, i64 noundef 4, ptr noundef %75)
  %76 = load ptr, ptr %10, align 8, !tbaa !52
  %77 = getelementptr inbounds nuw %struct.tsi_fake_zero_copy_grpc_protector, ptr %76, i32 0, i32 2
  %78 = load ptr, ptr %10, align 8, !tbaa !52
  %79 = getelementptr inbounds nuw %struct.tsi_fake_zero_copy_grpc_protector, ptr %78, i32 0, i32 4
  %80 = load i64, ptr %79, align 8, !tbaa !58
  %81 = sub i64 %80, 4
  %82 = load ptr, ptr %8, align 8, !tbaa !3
  call void @grpc_slice_buffer_move_first(ptr noundef %77, i64 noundef %81, ptr noundef %82)
  %83 = load ptr, ptr %10, align 8, !tbaa !52
  %84 = getelementptr inbounds nuw %struct.tsi_fake_zero_copy_grpc_protector, ptr %83, i32 0, i32 4
  store i64 0, ptr %84, align 8, !tbaa !58
  %85 = load ptr, ptr %10, align 8, !tbaa !52
  %86 = getelementptr inbounds nuw %struct.tsi_fake_zero_copy_grpc_protector, ptr %85, i32 0, i32 1
  call void @grpc_slice_buffer_reset_and_unref(ptr noundef %86)
  br label %30, !llvm.loop !182

87:                                               ; preds = %70, %30
  %88 = load ptr, ptr %9, align 8, !tbaa !69
  %89 = icmp ne ptr %88, null
  br i1 %89, label %90, label %109

90:                                               ; preds = %87
  %91 = load ptr, ptr %10, align 8, !tbaa !52
  %92 = getelementptr inbounds nuw %struct.tsi_fake_zero_copy_grpc_protector, ptr %91, i32 0, i32 4
  %93 = load i64, ptr %92, align 8, !tbaa !58
  %94 = icmp ugt i64 %93, 4
  br i1 %94, label %95, label %106

95:                                               ; preds = %90
  %96 = load ptr, ptr %10, align 8, !tbaa !52
  %97 = getelementptr inbounds nuw %struct.tsi_fake_zero_copy_grpc_protector, ptr %96, i32 0, i32 4
  %98 = load i64, ptr %97, align 8, !tbaa !58
  %99 = load ptr, ptr %10, align 8, !tbaa !52
  %100 = getelementptr inbounds nuw %struct.tsi_fake_zero_copy_grpc_protector, ptr %99, i32 0, i32 2
  %101 = getelementptr inbounds nuw %struct.grpc_slice_buffer, ptr %100, i32 0, i32 4
  %102 = load i64, ptr %101, align 8, !tbaa !181
  %103 = sub i64 %98, %102
  %104 = trunc i64 %103 to i32
  %105 = load ptr, ptr %9, align 8, !tbaa !69
  store i32 %104, ptr %105, align 4, !tbaa !23
  br label %108

106:                                              ; preds = %90
  %107 = load ptr, ptr %9, align 8, !tbaa !69
  store i32 1, ptr %107, align 4, !tbaa !23
  br label %108

108:                                              ; preds = %106, %95
  br label %109

109:                                              ; preds = %108, %87
  store i32 0, ptr %5, align 4
  store i32 1, ptr %15, align 4
  br label %110

110:                                              ; preds = %109, %55
  call void @llvm.lifetime.end.p0(i64 8, ptr %10) #3
  br label %111

111:                                              ; preds = %110, %24
  %112 = load i32, ptr %5, align 4
  ret i32 %112

113:                                              ; preds = %56
  %114 = load ptr, ptr %13, align 8
  %115 = load i32, ptr %14, align 4
  %116 = insertvalue { ptr, i32 } poison, ptr %114, 0
  %117 = insertvalue { ptr, i32 } %116, i32 %115, 1
  resume { ptr, i32 } %117
}