; Function Attrs: mustprogress uwtable
define internal noundef range(i32 0, 9) i32 @_ZL39fake_zero_copy_grpc_protector_unprotectP28tsi_zero_copy_grpc_protectorP17grpc_slice_bufferS2_Pi(ptr noundef %0, ptr noundef %1, ptr noundef %2, ptr noundef writeonly %3) #3 personality ptr @__gxx_personality_v0 {
  %5 = alloca %"class.absl::lts_20240722::log_internal::LogMessage", align 8
  %6 = icmp eq ptr %0, null
  %7 = icmp eq ptr %2, null
  %or.cond = or i1 %6, %7
  %8 = icmp eq ptr %1, null
  %or.cond3 = or i1 %8, %or.cond
  br i1 %or.cond3, label %45, label %9

9:                                                ; preds = %4
  %10 = getelementptr inbounds nuw i8, ptr %0, i64 240
  tail call void @grpc_slice_buffer_move_into(ptr noundef nonnull %1, ptr noundef nonnull %10)
  %11 = getelementptr inbounds nuw i8, ptr %0, i64 272
  %12 = load i64, ptr %11, align 8, !tbaa !86
  %13 = icmp ugt i64 %12, 3
  br i1 %13, label %.lr.ph, label %._crit_edge

.lr.ph:                                           ; preds = %9
  %14 = getelementptr inbounds nuw i8, ptr %0, i64 480
  %15 = getelementptr inbounds nuw i8, ptr %0, i64 8
  br label %16

16:                                               ; preds = %.lr.ph, %31
  %17 = phi i64 [ %12, %.lr.ph ], [ %34, %31 ]
  %18 = load i64, ptr %14, align 8, !tbaa !50
  %19 = icmp eq i64 %18, 0
  br i1 %19, label %20, label %27

20:                                               ; preds = %16
  %21 = tail call fastcc noundef i32 @_ZL15read_frame_sizePK17grpc_slice_buffer(ptr noundef nonnull %10)
  %22 = zext i32 %21 to i64
  store i64 %22, ptr %14, align 8, !tbaa !50
  %23 = icmp ult i32 %21, 5
  br i1 %23, label %24, label %._crit_edge39

._crit_edge39:                                    ; preds = %20
  %.pre = load i64, ptr %11, align 8, !tbaa !86
  br label %27

24:                                               ; preds = %20
  call void @llvm.lifetime.start.p0(i64 16, ptr nonnull %5) #20
  call void @_ZN4absl12lts_2024072212log_internal10LogMessageC1EPKciNS2_8ErrorTagE(ptr noundef nonnull align 8 dereferenceable(16) %5, ptr noundef nonnull @.str, i32 noundef 477) #21
  invoke void @_ZN4absl12lts_2024072212log_internal10LogMessage19CopyToEncodedBufferILNS2_10StringTypeE0EEEvSt17basic_string_viewIcSt11char_traitsIcEE(ptr noundef nonnull align 8 dereferenceable(16) %5, i64 19, ptr nonnull @.str.28)
          to label %_ZN4absl12lts_2024072212log_internal10LogMessagelsILi20EEERS2_RAT__Kc.exit unwind label %25

_ZN4absl12lts_2024072212log_internal10LogMessagelsILi20EEERS2_RAT__Kc.exit: ; preds = %24
  call void @_ZN4absl12lts_2024072212log_internal10LogMessageD1Ev(ptr noundef nonnull align 8 dereferenceable(16) %5) #25
  call void @llvm.lifetime.end.p0(i64 16, ptr nonnull %5) #20
  br label %45

25:                                               ; preds = %24
  %26 = landingpad { ptr, i32 }
          cleanup
  call void @_ZN4absl12lts_2024072212log_internal10LogMessageD1Ev(ptr noundef nonnull align 8 dereferenceable(16) %5) #25
  call void @llvm.lifetime.end.p0(i64 16, ptr nonnull %5) #20
  resume { ptr, i32 } %26

27:                                               ; preds = %._crit_edge39, %16
  %28 = phi i64 [ %22, %._crit_edge39 ], [ %18, %16 ]
  %29 = phi i64 [ %.pre, %._crit_edge39 ], [ %17, %16 ]
  %30 = icmp ult i64 %29, %28
  br i1 %30, label %._crit_edge, label %31

31:                                               ; preds = %27
  tail call void @grpc_slice_buffer_move_first(ptr noundef nonnull %10, i64 noundef 4, ptr noundef nonnull %15)
  %32 = load i64, ptr %14, align 8, !tbaa !50
  %33 = add i64 %32, -4
  tail call void @grpc_slice_buffer_move_first(ptr noundef nonnull %10, i64 noundef %33, ptr noundef %2)
  store i64 0, ptr %14, align 8, !tbaa !50
  tail call void @grpc_slice_buffer_reset_and_unref(ptr noundef nonnull %15)
  %34 = load i64, ptr %11, align 8, !tbaa !86
  %35 = icmp ugt i64 %34, 3
  br i1 %35, label %16, label %._crit_edge, !llvm.loop !87

._crit_edge:                                      ; preds = %31, %27, %9
  %36 = phi i64 [ %12, %9 ], [ %34, %31 ], [ %29, %27 ]
  %.not = icmp eq ptr %3, null
  br i1 %.not, label %45, label %37

37:                                               ; preds = %._crit_edge
  %38 = getelementptr inbounds nuw i8, ptr %0, i64 480
  %39 = load i64, ptr %38, align 8, !tbaa !50
  %40 = icmp ugt i64 %39, 4
  br i1 %40, label %41, label %44

41:                                               ; preds = %37
  %42 = sub i64 %39, %36
  %43 = trunc i64 %42 to i32
  store i32 %43, ptr %3, align 4, !tbaa !62
  br label %45

44:                                               ; preds = %37
  store i32 1, ptr %3, align 4, !tbaa !62
  br label %45

45:                                               ; preds = %_ZN4absl12lts_2024072212log_internal10LogMessagelsILi20EEERS2_RAT__Kc.exit, %41, %44, %._crit_edge, %4
  %.0 = phi i32 [ 2, %4 ], [ 8, %_ZN4absl12lts_2024072212log_internal10LogMessagelsILi20EEERS2_RAT__Kc.exit ], [ 0, %41 ], [ 0, %44 ], [ 0, %._crit_edge ]
  ret i32 %.0
}